---
triple:          'arm64-apple-darwin'
binary-path:     main
relocations:
  - { offset: 0x31F8, size: 0x8, addend: 0x0, symName: __ZNSt3__124__put_character_sequenceB8ne180100IcNS_11char_traitsIcEEEERNS_13basic_ostreamIT_T0_EES7_PKS4_m, symObjAddr: 0x878, symBinAddr: 0x100001868, symSize: 0x164 }
  - { offset: 0x54BA, size: 0x8, addend: 0x0, symName: __ZNSt3__116__pad_and_outputB8ne180100IcNS_11char_traitsIcEEEENS_19ostreambuf_iteratorIT_T0_EES6_PKS4_S8_S8_RNS_8ios_baseES4_, symObjAddr: 0x9DC, symBinAddr: 0x1000019CC, symSize: 0x1A8 }
  - { offset: 0x5C35, size: 0x8, addend: 0x0, symName: __ZNSt3__120__throw_length_errorB8ne180100EPKc, symObjAddr: 0xBA0, symBinAddr: 0x100001B90, symSize: 0x4C }
  - { offset: 0x72E2, size: 0x8, addend: 0x0, symName: _main, symObjAddr: 0x0, symBinAddr: 0x100000FF0, symSize: 0x878 }
  - { offset: 0x8368, size: 0x8, addend: 0x0, symName: __ZNKSt3__112basic_stringIcNS_11char_traitsIcEENS_9allocatorIcEEE20__throw_length_errorB8ne180100Ev, symObjAddr: 0xB90, symBinAddr: 0x100001B80, symSize: 0x10 }
  - { offset: 0x8392, size: 0x8, addend: 0x0, symName: __ZNSt3__120__throw_length_errorB8ne180100EPKc, symObjAddr: 0xBA0, symBinAddr: 0x100001B90, symSize: 0x4C }
  - { offset: 0x8644, size: 0x8, addend: 0x0, symName: __ZNSt12length_errorC1B8ne180100EPKc, symObjAddr: 0xBEC, symBinAddr: 0x100001BDC, symSize: 0x20 }
  - { offset: 0x14755, size: 0x8, addend: 0x0, symName: __ZNSt3__111__introsortINS_17_ClassicAlgPolicyERNS_6__lessIvvEE10JSIteratorIxxELb0EEEvT1_S7_T0_NS_15iterator_traitsIS7_E15difference_typeEb, symObjAddr: 0x4C0, symBinAddr: 0x1000020B0, symSize: 0xA6C }
  - { offset: 0x1713A, size: 0x8, addend: 0x0, symName: __ZNSt3__127__insertion_sort_incompleteB8ne180100INS_17_ClassicAlgPolicyERNS_6__lessIvvEE10JSIteratorIxxEEEbT1_S7_T0_, symObjAddr: 0xF2C, symBinAddr: 0x100002B1C, symSize: 0x3C0 }
  - { offset: 0x1808B, size: 0x8, addend: 0x0, symName: __ZNSt3__111__introsortINS_17_ClassicAlgPolicyERPFb4PairS2_EPS2_Lb0EEEvT1_S7_T0_NS_15iterator_traitsIS7_E15difference_typeEb, symObjAddr: 0x1C0C, symBinAddr: 0x1000037FC, symSize: 0x440 }
  - { offset: 0x186CD, size: 0x8, addend: 0x0, symName: __ZNSt3__111__sift_downB8ne180100INS_17_ClassicAlgPolicyERPFb4PairS2_EPS2_EEvT1_OT0_NS_15iterator_traitsIS7_E15difference_typeES7_, symObjAddr: 0x272C, symBinAddr: 0x10000431C, symSize: 0x140 }
  - { offset: 0x187CE, size: 0x8, addend: 0x0, symName: __ZNSt3__131__partition_with_equals_on_leftB8ne180100INS_17_ClassicAlgPolicyEP4PairRPFbS2_S2_EEET0_S7_S7_T1_, symObjAddr: 0x2174, symBinAddr: 0x100003D64, symSize: 0x130 }
  - { offset: 0x18981, size: 0x8, addend: 0x0, symName: __ZNSt3__132__partition_with_equals_on_rightB8ne180100INS_17_ClassicAlgPolicyEP4PairRPFbS2_S2_EEENS_4pairIT0_bEES8_S8_T1_, symObjAddr: 0x22A4, symBinAddr: 0x100003E94, symSize: 0x12C }
  - { offset: 0x18B2C, size: 0x8, addend: 0x0, symName: __ZNSt3__127__insertion_sort_incompleteB8ne180100INS_17_ClassicAlgPolicyERPFb4PairS2_EPS2_EEbT1_S7_T0_, symObjAddr: 0x23D0, symBinAddr: 0x100003FC0, symSize: 0x1CC }
  - { offset: 0x1BEBA, size: 0x8, addend: 0x0, symName: __ZNSt3__17__sort4B8ne180100INS_17_ClassicAlgPolicyERNS_6__lessIvvEE10JSIteratorIxxEEEvT1_S7_S7_S7_T0_, symObjAddr: 0x12EC, symBinAddr: 0x100002EDC, symSize: 0x134 }
  - { offset: 0x1BF22, size: 0x8, addend: 0x0, symName: __ZNSt3__17__sort4B8ne180100INS_17_ClassicAlgPolicyERNS_6__lessIvvEE10JSIteratorIxxEEEvT1_S7_S7_S7_T0_, symObjAddr: 0x12EC, symBinAddr: 0x100002EDC, symSize: 0x134 }
  - { offset: 0x1BF5A, size: 0x8, addend: 0x0, symName: __ZNSt3__17__sort4B8ne180100INS_17_ClassicAlgPolicyERNS_6__lessIvvEE10JSIteratorIxxEEEvT1_S7_S7_S7_T0_, symObjAddr: 0x12EC, symBinAddr: 0x100002EDC, symSize: 0x134 }
  - { offset: 0x1BF6E, size: 0x8, addend: 0x0, symName: __ZNSt3__17__sort4B8ne180100INS_17_ClassicAlgPolicyERNS_6__lessIvvEE10JSIteratorIxxEEEvT1_S7_S7_S7_T0_, symObjAddr: 0x12EC, symBinAddr: 0x100002EDC, symSize: 0x134 }
  - { offset: 0x1C61A, size: 0x8, addend: 0x0, symName: __ZNSt3__119__partial_sort_implB8ne180100INS_17_ClassicAlgPolicyERNS_6__lessIvvEE10JSIteratorIxxES6_EET1_S7_S7_T2_OT0_, symObjAddr: 0x1420, symBinAddr: 0x100003010, symSize: 0x450 }
  - { offset: 0x1D59A, size: 0x8, addend: 0x0, symName: __ZNSt3__17__sort3B8ne180100INS_17_ClassicAlgPolicyERPFb4PairS2_EPS2_EEjT1_S7_S7_T0_, symObjAddr: 0x204C, symBinAddr: 0x100003C3C, symSize: 0x128 }
  - { offset: 0x1D845, size: 0x8, addend: 0x0, symName: __ZNSt3__17__sort5B8ne180100INS_17_ClassicAlgPolicyERPFb4PairS2_EPS2_EEvT1_S7_S7_S7_S7_T0_, symObjAddr: 0x2650, symBinAddr: 0x100004240, symSize: 0xDC }
  - { offset: 0x1DAC6, size: 0x8, addend: 0x0, symName: __ZNSt3__17__sort4B8ne180100INS_17_ClassicAlgPolicyERPFb4PairS2_EPS2_EEvT1_S7_S7_S7_T0_, symObjAddr: 0x259C, symBinAddr: 0x10000418C, symSize: 0xB4 }
  - { offset: 0x1DCC1, size: 0x8, addend: 0x0, symName: __ZNSt3__111__sort_heapB8ne180100INS_17_ClassicAlgPolicyERPFb4PairS2_EPS2_EEvT1_S7_OT0_, symObjAddr: 0x286C, symBinAddr: 0x10000445C, symSize: 0x18C }
  - { offset: 0x1F307, size: 0x8, addend: 0x0, symName: __ZNSt3__17getlineB8ne180100IcNS_11char_traitsIcEENS_9allocatorIcEEEERNS_13basic_istreamIT_T0_EES9_RNS_12basic_stringIS6_S7_T1_EES6_, symObjAddr: 0x38F0, symBinAddr: 0x100005158, symSize: 0x184 }
  - { offset: 0x1F5FF, size: 0x8, addend: 0x0, symName: __ZNSt3__14endlB8ne180100IcNS_11char_traitsIcEEEERNS_13basic_ostreamIT_T0_EES7_, symObjAddr: 0x3348, symBinAddr: 0x100004ECC, symSize: 0x8C }
  - { offset: 0x216EF, size: 0x8, addend: 0x0, symName: __ZNK5Graph4copyEv, symObjAddr: 0x0, symBinAddr: 0x100001BFC, symSize: 0x98 }
  - { offset: 0x2195C, size: 0x8, addend: 0x0, symName: __Z8newGraphxx, symObjAddr: 0x98, symBinAddr: 0x100001C94, symSize: 0x44 }
  - { offset: 0x21983, size: 0x8, addend: 0x0, symName: __Z9newCGraphxx, symObjAddr: 0xE8, symBinAddr: 0x100001CD8, symSize: 0x58 }
  - { offset: 0x219B9, size: 0x8, addend: 0x0, symName: __ZNK6CGraph8sortByIdEv, symObjAddr: 0x140, symBinAddr: 0x100001D30, symSize: 0x5C }
  - { offset: 0x219D9, size: 0x8, addend: 0x0, symName: __ZNK6CGraph8sortByIdEv, symObjAddr: 0x140, symBinAddr: 0x100001D30, symSize: 0x5C }
  - { offset: 0x21B1B, size: 0x8, addend: 0x0, symName: __Z7makeCSRR5Graph, symObjAddr: 0x19C, symBinAddr: 0x100001D8C, symSize: 0x324 }
  - { offset: 0x22383, size: 0x8, addend: 0x0, symName: __Z13compareDegree4PairS_, symObjAddr: 0x1870, symBinAddr: 0x100003460, symSize: 0x18 }
  - { offset: 0x223C0, size: 0x8, addend: 0x0, symName: __Z12binarySearchPxxx, symObjAddr: 0x1888, symBinAddr: 0x100003478, symSize: 0x48 }
  - { offset: 0x2249D, size: 0x8, addend: 0x0, symName: __ZNK6CGraph19renameByDegreeOrderEv, symObjAddr: 0x18D0, symBinAddr: 0x1000034C0, symSize: 0x33C }
  - { offset: 0x2276F, size: 0x8, addend: 0x0, symName: __ZNK6CGraph9reMappingEPxS0_, symObjAddr: 0x29F8, symBinAddr: 0x1000045E8, symSize: 0x110 }
  - { offset: 0x22B47, size: 0x8, addend: 0x0, symName: __ZNK6CGraph5getE2Ev, symObjAddr: 0x2B08, symBinAddr: 0x1000046F8, symSize: 0x264 }
  - { offset: 0x23061, size: 0x8, addend: 0x0, symName: __ZNK6CGraph13getEdgeBinaryExx, symObjAddr: 0x2D6C, symBinAddr: 0x10000495C, symSize: 0x60 }
  - { offset: 0x2308A, size: 0x8, addend: 0x0, symName: __ZNKSt3__16vectorIbNS_9allocatorIbEEE20__throw_length_errorB8ne180100Ev, symObjAddr: 0x2DCC, symBinAddr: 0x1000049BC, symSize: 0x10 }
  - { offset: 0x230BF, size: 0x8, addend: 0x0, symName: __ZNK6CGraph13getEdgeBinaryExx, symObjAddr: 0x2D6C, symBinAddr: 0x10000495C, symSize: 0x60 }
  - { offset: 0x2316E, size: 0x8, addend: 0x0, symName: __ZNK6CGraph12isEdgeBinaryExx, symObjAddr: 0x2E48, symBinAddr: 0x1000049CC, symSize: 0x5C }
  - { offset: 0x238BC, size: 0x8, addend: 0x0, symName: __Z8read_mtxRKNSt3__112basic_stringIcNS_11char_traitsIcEENS_9allocatorIcEEEER5Graph, symObjAddr: 0x2EA4, symBinAddr: 0x100004A28, symSize: 0x388 }
  - { offset: 0x240F5, size: 0x8, addend: 0x0, symName: __ZNSt3__114basic_ifstreamIcNS_11char_traitsIcEEEC1ERKNS_12basic_stringIcS2_NS_9allocatorIcEEEEj, symObjAddr: 0x322C, symBinAddr: 0x100004DB0, symSize: 0x11C }
  - { offset: 0x24249, size: 0x8, addend: 0x0, symName: __ZNSt3__119basic_istringstreamIcNS_11char_traitsIcEENS_9allocatorIcEEEC1B8ne180100ERKNS_12basic_stringIcS2_S4_EEj, symObjAddr: 0x33D4, symBinAddr: 0x100004F58, symSize: 0x12C }
  - { offset: 0x24426, size: 0x8, addend: 0x0, symName: __ZNSt3__114basic_ifstreamIcNS_11char_traitsIcEEED1Ev, symObjAddr: 0x3580, symBinAddr: 0x100005104, symSize: 0x54 }
  - { offset: 0x2446E, size: 0x8, addend: 0x0, symName: __ZNSt3__119basic_istringstreamIcNS_11char_traitsIcEENS_9allocatorIcEEED1Ev, symObjAddr: 0x3500, symBinAddr: 0x100005084, symSize: 0x80 }
  - { offset: 0x24A56, size: 0x8, addend: 0x0, symName: __ZNSt3__17getlineB8ne180100IcNS_11char_traitsIcEENS_9allocatorIcEEEERNS_13basic_istreamIT_T0_EES9_RNS_12basic_stringIS6_S7_T1_EES6_, symObjAddr: 0x38F0, symBinAddr: 0x100005158, symSize: 0x184 }
  - { offset: 0x267FE, size: 0x8, addend: 0x0, symName: __Z13degreeOrderedP6CGraph, symObjAddr: 0x0, symBinAddr: 0x1000052DC, symSize: 0x248 }
  - { offset: 0x26829, size: 0x8, addend: 0x0, symName: __ZNSt3__111__introsortINS_17_ClassicAlgPolicyER10DegreeCompPxLb0EEEvT1_S5_T0_NS_15iterator_traitsIS5_E15difference_typeEb, symObjAddr: 0x248, symBinAddr: 0x100005524, symSize: 0x3E8 }
  - { offset: 0x26CCC, size: 0x8, addend: 0x0, symName: __ZNSt3__116__insertion_sortB8ne180100INS_17_ClassicAlgPolicyER10DegreeCompPxEEvT1_S5_T0_, symObjAddr: 0x630, symBinAddr: 0x10000590C, symSize: 0x11C }
  - { offset: 0x26D2E, size: 0x8, addend: 0x0, symName: __ZNSt3__126__insertion_sort_unguardedB8ne180100INS_17_ClassicAlgPolicyER10DegreeCompPxEEvT1_S5_T0_, symObjAddr: 0x74C, symBinAddr: 0x100005A28, symSize: 0xFC }
  - { offset: 0x26E80, size: 0x8, addend: 0x0, symName: __ZNSt3__17__sort3B8ne180100INS_17_ClassicAlgPolicyER10DegreeCompPxEEjT1_S5_S5_T0_, symObjAddr: 0x848, symBinAddr: 0x100005B24, symSize: 0x1F0 }
  - { offset: 0x26EB8, size: 0x8, addend: 0x0, symName: __ZNSt3__111__sift_downB8ne180100INS_17_ClassicAlgPolicyER10DegreeCompPxEEvT1_OT0_NS_15iterator_traitsIS5_E15difference_typeES5_, symObjAddr: 0x1640, symBinAddr: 0x10000691C, symSize: 0x1DC }
  - { offset: 0x270B4, size: 0x8, addend: 0x0, symName: __ZNSt3__131__partition_with_equals_on_leftB8ne180100INS_17_ClassicAlgPolicyEPxR10DegreeCompEET0_S5_S5_T1_, symObjAddr: 0xA38, symBinAddr: 0x100005D14, symSize: 0x220 }
  - { offset: 0x27378, size: 0x8, addend: 0x0, symName: __ZNSt3__132__partition_with_equals_on_rightB8ne180100INS_17_ClassicAlgPolicyEPxR10DegreeCompEENS_4pairIT0_bEES6_S6_T1_, symObjAddr: 0xC58, symBinAddr: 0x100005F34, symSize: 0x228 }
  - { offset: 0x273AF, size: 0x8, addend: 0x0, symName: __ZNSt3__132__partition_with_equals_on_rightB8ne180100INS_17_ClassicAlgPolicyEPxR10DegreeCompEENS_4pairIT0_bEES6_S6_T1_, symObjAddr: 0xC58, symBinAddr: 0x100005F34, symSize: 0x228 }
  - { offset: 0x27642, size: 0x8, addend: 0x0, symName: __ZNSt3__127__insertion_sort_incompleteB8ne180100INS_17_ClassicAlgPolicyER10DegreeCompPxEEbT1_S5_T0_, symObjAddr: 0xE80, symBinAddr: 0x10000615C, symSize: 0x290 }
  - { offset: 0x27679, size: 0x8, addend: 0x0, symName: __ZNSt3__127__insertion_sort_incompleteB8ne180100INS_17_ClassicAlgPolicyER10DegreeCompPxEEbT1_S5_T0_, symObjAddr: 0xE80, symBinAddr: 0x10000615C, symSize: 0x290 }
  - { offset: 0x279AC, size: 0x8, addend: 0x0, symName: __ZNSt3__17__sort4B8ne180100INS_17_ClassicAlgPolicyER10DegreeCompPxEEvT1_S5_S5_S5_T0_, symObjAddr: 0x1110, symBinAddr: 0x1000063EC, symSize: 0x14C }
  - { offset: 0x27D79, size: 0x8, addend: 0x0, symName: __ZNSt3__17__sort3B8ne180100INS_17_ClassicAlgPolicyER10DegreeCompPxEEjT1_S5_S5_T0_, symObjAddr: 0x848, symBinAddr: 0x100005B24, symSize: 0x1F0 }
  - { offset: 0x28169, size: 0x8, addend: 0x0, symName: __ZNSt3__131__partition_with_equals_on_leftB8ne180100INS_17_ClassicAlgPolicyEPxR10DegreeCompEET0_S5_S5_T1_, symObjAddr: 0xA38, symBinAddr: 0x100005D14, symSize: 0x220 }
  - { offset: 0x28195, size: 0x8, addend: 0x0, symName: __ZNSt3__17__sort4B8ne180100INS_17_ClassicAlgPolicyER10DegreeCompPxEEvT1_S5_S5_S5_T0_, symObjAddr: 0x1110, symBinAddr: 0x1000063EC, symSize: 0x14C }
  - { offset: 0x28426, size: 0x8, addend: 0x0, symName: __ZNSt3__17__sort5B8ne180100INS_17_ClassicAlgPolicyER10DegreeCompPxEEvT1_S5_S5_S5_S5_T0_, symObjAddr: 0x125C, symBinAddr: 0x100006538, symSize: 0x1A0 }
  - { offset: 0x28452, size: 0x8, addend: 0x0, symName: __ZNSt3__17__sort5B8ne180100INS_17_ClassicAlgPolicyER10DegreeCompPxEEvT1_S5_S5_S5_S5_T0_, symObjAddr: 0x125C, symBinAddr: 0x100006538, symSize: 0x1A0 }
  - { offset: 0x28798, size: 0x8, addend: 0x0, symName: __ZNSt3__119__partial_sort_implB8ne180100INS_17_ClassicAlgPolicyER10DegreeCompPxS4_EET1_S5_S5_T2_OT0_, symObjAddr: 0x13FC, symBinAddr: 0x1000066D8, symSize: 0x244 }
  - { offset: 0x287C4, size: 0x8, addend: 0x0, symName: __ZNSt3__116__insertion_sortB8ne180100INS_17_ClassicAlgPolicyER10DegreeCompPxEEvT1_S5_T0_, symObjAddr: 0x630, symBinAddr: 0x10000590C, symSize: 0x11C }
  - { offset: 0x288FA, size: 0x8, addend: 0x0, symName: __ZNSt3__126__insertion_sort_unguardedB8ne180100INS_17_ClassicAlgPolicyER10DegreeCompPxEEvT1_S5_T0_, symObjAddr: 0x74C, symBinAddr: 0x100005A28, symSize: 0xFC }
  - { offset: 0x28932, size: 0x8, addend: 0x0, symName: __ZNSt3__119__partial_sort_implB8ne180100INS_17_ClassicAlgPolicyER10DegreeCompPxS4_EET1_S5_S5_T2_OT0_, symObjAddr: 0x13FC, symBinAddr: 0x1000066D8, symSize: 0x244 }
  - { offset: 0x28C51, size: 0x8, addend: 0x0, symName: __ZNSt3__111__sift_downB8ne180100INS_17_ClassicAlgPolicyER10DegreeCompPxEEvT1_OT0_NS_15iterator_traitsIS5_E15difference_typeES5_, symObjAddr: 0x1640, symBinAddr: 0x10000691C, symSize: 0x1DC }
  - { offset: 0x28E88, size: 0x8, addend: 0x0, symName: __ZNSt3__19__sift_upB8ne180100INS_17_ClassicAlgPolicyER10DegreeCompPxEEvT1_S5_OT0_NS_15iterator_traitsIS5_E15difference_typeE, symObjAddr: 0x181C, symBinAddr: 0x100006AF8, symSize: 0x10C }
  - { offset: 0x28FBE, size: 0x8, addend: 0x0, symName: __Z14degreeOrdered2P6CGraphS0_, symObjAddr: 0x1928, symBinAddr: 0x100006C04, symSize: 0x264 }
  - { offset: 0x29C7D, size: 0x8, addend: 0x0, symName: __Z13degreeOrderedP6CGraph, symObjAddr: 0x0, symBinAddr: 0x1000052DC, symSize: 0x248 }
  - { offset: 0x29F6C, size: 0x8, addend: 0x0, symName: __Z14degreeOrdered2P6CGraphS0_, symObjAddr: 0x1928, symBinAddr: 0x100006C04, symSize: 0x264 }
  - { offset: 0x2C065, size: 0x8, addend: 0x0, symName: _num_threads, symObjAddr: 0x3B38, symBinAddr: 0x100010000, symSize: 0x0 }
  - { offset: 0x2C166, size: 0x8, addend: 0x0, symName: __Z8get3sizeP6CGraphS0_, symObjAddr: 0x0, symBinAddr: 0x100006E68, symSize: 0x60 }
  - { offset: 0x2C3A8, size: 0x8, addend: 0x0, symName: __Z8get3sizeP6CGraphS0_.omp_outlined, symObjAddr: 0x6C, symBinAddr: 0x100006EC8, symSize: 0x34C }
  - { offset: 0x2C851, size: 0x8, addend: 0x0, symName: __Z8get4sizeP6CGraphS0_S0_S0_, symObjAddr: 0x3B8, symBinAddr: 0x100007214, symSize: 0x648 }
  - { offset: 0x2CF68, size: 0x8, addend: 0x0, symName: __Z8get4sizeP6CGraphS0_S0_S0_.omp_outlined, symObjAddr: 0xA00, symBinAddr: 0x10000785C, symSize: 0x2528 }
  - { offset: 0x2DFA7, size: 0x8, addend: 0x0, symName: __Z10countThreeP6CGraphP4CDAGS0_S2_RA6_d, symObjAddr: 0x2F28, symBinAddr: 0x100009D84, symSize: 0x124 }
  - { offset: 0x2E17C, size: 0x8, addend: 0x0, symName: __Z9countFourP4CDAGS0_RA36_d, symObjAddr: 0x304C, symBinAddr: 0x100009EA8, symSize: 0x114 }
  - { offset: 0x2E1F9, size: 0x8, addend: 0x0, symName: __Z10mEquation3RA6_d, symObjAddr: 0x3160, symBinAddr: 0x100009FBC, symSize: 0x34 }
  - { offset: 0x2E252, size: 0x8, addend: 0x0, symName: __Z10mEquation4RA36_d, symObjAddr: 0x3194, symBinAddr: 0x100009FF0, symSize: 0x42C }
  - { offset: 0x2E2A3, size: 0x8, addend: 0x0, symName: __Z10print3sizeRA6_d, symObjAddr: 0x35C0, symBinAddr: 0x10000A41C, symSize: 0xB8 }
  - { offset: 0x2E37E, size: 0x8, addend: 0x0, symName: __Z10print4sizeRA36_d, symObjAddr: 0x3678, symBinAddr: 0x10000A4D4, symSize: 0x384 }
...
