---
triple:          'arm64-apple-darwin'
binary-path:     main_random
relocations:
  - { offset: 0xC16A, size: 0x8, addend: 0x0, symName: __ZNSt3__124__put_character_sequenceB8ne180100IcNS_11char_traitsIcEEEERNS_13basic_ostreamIT_T0_EES7_PKS4_m, symObjAddr: 0xB20, symBinAddr: 0x100004BE4, symSize: 0x164 }
  - { offset: 0xDEA8, size: 0x8, addend: 0x0, symName: __ZNSt3__116__pad_and_outputB8ne180100IcNS_11char_traitsIcEEEENS_19ostreambuf_iteratorIT_T0_EES6_PKS4_S8_S8_RNS_8ios_baseES4_, symObjAddr: 0xC84, symBinAddr: 0x100004D48, symSize: 0x1A8 }
  - { offset: 0xE623, size: 0x8, addend: 0x0, symName: __ZNSt3__120__throw_length_errorB8ne180100EPKc, symObjAddr: 0xE48, symBinAddr: 0x100004F0C, symSize: 0x4C }
  - { offset: 0x110A9, size: 0x8, addend: 0x0, symName: _main, symObjAddr: 0x0, symBinAddr: 0x1000040C4, symSize: 0xAC8 }
  - { offset: 0x1373A, size: 0x8, addend: 0x0, symName: __ZNSt3__112basic_stringIcNS_11char_traitsIcEENS_9allocatorIcEEE6appendB8ne180100IPKcTnNS_9enable_ifIXsr31__has_forward_iterator_categoryIT_EE5valueEiE4typeELi0EEERS5_SA_SA_, symObjAddr: 0xEB4, symBinAddr: 0x100004F78, symSize: 0x250 }
  - { offset: 0x13F56, size: 0x8, addend: 0x0, symName: __ZNSt3__112basic_stringIcNS_11char_traitsIcEENS_9allocatorIcEEE25__init_copy_ctor_externalEPKcm, symObjAddr: 0x1104, symBinAddr: 0x1000051C8, symSize: 0x90 }
  - { offset: 0x14526, size: 0x8, addend: 0x0, symName: __ZNKSt3__112basic_stringIcNS_11char_traitsIcEENS_9allocatorIcEEE20__throw_length_errorB8ne180100Ev, symObjAddr: 0xE38, symBinAddr: 0x100004EFC, symSize: 0x10 }
  - { offset: 0x14550, size: 0x8, addend: 0x0, symName: __ZNSt3__120__throw_length_errorB8ne180100EPKc, symObjAddr: 0xE48, symBinAddr: 0x100004F0C, symSize: 0x4C }
  - { offset: 0x1455B, size: 0x8, addend: 0x0, symName: __ZNSt3__14__fs10filesystem18directory_iteratorD1B8ne180100Ev, symObjAddr: 0xAC8, symBinAddr: 0x100004B8C, symSize: 0x58 }
  - { offset: 0x148CE, size: 0x8, addend: 0x0, symName: __ZNSt12length_errorC1B8ne180100EPKc, symObjAddr: 0xE94, symBinAddr: 0x100004F58, symSize: 0x20 }
  - { offset: 0x1FA9E, size: 0x8, addend: 0x0, symName: __ZNSt3__111__introsortINS_17_ClassicAlgPolicyERNS_6__lessIvvEE10JSIteratorIjjELb0EEEvT1_S7_T0_NS_15iterator_traitsIS7_E15difference_typeEb, symObjAddr: 0x50C, symBinAddr: 0x100005758, symSize: 0xA6C }
  - { offset: 0x22483, size: 0x8, addend: 0x0, symName: __ZNSt3__127__insertion_sort_incompleteB8ne180100INS_17_ClassicAlgPolicyERNS_6__lessIvvEE10JSIteratorIjjEEEbT1_S7_T0_, symObjAddr: 0xF78, symBinAddr: 0x1000061C4, symSize: 0x3C0 }
  - { offset: 0x233D4, size: 0x8, addend: 0x0, symName: __ZNSt3__111__introsortINS_17_ClassicAlgPolicyERPFb4PairS2_EPS2_Lb0EEEvT1_S7_T0_NS_15iterator_traitsIS7_E15difference_typeEb, symObjAddr: 0x1C54, symBinAddr: 0x100006EA0, symSize: 0x91C }
  - { offset: 0x24A9E, size: 0x8, addend: 0x0, symName: __ZNSt3__127__insertion_sort_incompleteB8ne180100INS_17_ClassicAlgPolicyERPFb4PairS2_EPS2_EEbT1_S7_T0_, symObjAddr: 0x2570, symBinAddr: 0x1000077BC, symSize: 0x31C }
  - { offset: 0x28319, size: 0x8, addend: 0x0, symName: __ZNSt3__17__sort4B8ne180100INS_17_ClassicAlgPolicyERNS_6__lessIvvEE10JSIteratorIjjEEEvT1_S7_S7_S7_T0_, symObjAddr: 0x1338, symBinAddr: 0x100006584, symSize: 0x134 }
  - { offset: 0x28381, size: 0x8, addend: 0x0, symName: __ZNSt3__17__sort4B8ne180100INS_17_ClassicAlgPolicyERNS_6__lessIvvEE10JSIteratorIjjEEEvT1_S7_S7_S7_T0_, symObjAddr: 0x1338, symBinAddr: 0x100006584, symSize: 0x134 }
  - { offset: 0x283B9, size: 0x8, addend: 0x0, symName: __ZNSt3__17__sort4B8ne180100INS_17_ClassicAlgPolicyERNS_6__lessIvvEE10JSIteratorIjjEEEvT1_S7_S7_S7_T0_, symObjAddr: 0x1338, symBinAddr: 0x100006584, symSize: 0x134 }
  - { offset: 0x283CD, size: 0x8, addend: 0x0, symName: __ZNSt3__17__sort4B8ne180100INS_17_ClassicAlgPolicyERNS_6__lessIvvEE10JSIteratorIjjEEEvT1_S7_S7_S7_T0_, symObjAddr: 0x1338, symBinAddr: 0x100006584, symSize: 0x134 }
  - { offset: 0x28A79, size: 0x8, addend: 0x0, symName: __ZNSt3__119__partial_sort_implB8ne180100INS_17_ClassicAlgPolicyERNS_6__lessIvvEE10JSIteratorIjjES6_EET1_S7_S7_T2_OT0_, symObjAddr: 0x146C, symBinAddr: 0x1000066B8, symSize: 0x450 }
  - { offset: 0x29B8F, size: 0x8, addend: 0x0, symName: __ZNSt3__17__sort4B8ne180100INS_17_ClassicAlgPolicyERPFb4PairS2_EPS2_EEvT1_S7_S7_S7_T0_, symObjAddr: 0x288C, symBinAddr: 0x100007AD8, symSize: 0x14C }
  - { offset: 0x29FFA, size: 0x8, addend: 0x0, symName: __ZNSt3__119__partial_sort_implB8ne180100INS_17_ClassicAlgPolicyERPFb4PairS2_EPS2_S6_EET1_S7_S7_T2_OT0_, symObjAddr: 0x29D8, symBinAddr: 0x100007C24, symSize: 0x434 }
  - { offset: 0x2B9D5, size: 0x8, addend: 0x0, symName: __ZNSt3__17getlineB8ne180100IcNS_11char_traitsIcEENS_9allocatorIcEEEERNS_13basic_istreamIT_T0_EES9_RNS_12basic_stringIS6_S7_T1_EES6_, symObjAddr: 0x4310, symBinAddr: 0x1000091D4, symSize: 0x184 }
  - { offset: 0x2BCCD, size: 0x8, addend: 0x0, symName: __ZNSt3__14endlB8ne180100IcNS_11char_traitsIcEEEERNS_13basic_ostreamIT_T0_EES7_, symObjAddr: 0x3D68, symBinAddr: 0x100008F48, symSize: 0x8C }
  - { offset: 0x2DA80, size: 0x8, addend: 0x0, symName: __ZNK5Graph4copyEv, symObjAddr: 0x0, symBinAddr: 0x100005258, symSize: 0xA0 }
  - { offset: 0x2DCED, size: 0x8, addend: 0x0, symName: __Z8newGraphjy, symObjAddr: 0xA0, symBinAddr: 0x1000052F8, symSize: 0x48 }
  - { offset: 0x2DD14, size: 0x8, addend: 0x0, symName: __Z9newCGraphjy, symObjAddr: 0xF4, symBinAddr: 0x100005340, symSize: 0x50 }
  - { offset: 0x2DD4C, size: 0x8, addend: 0x0, symName: __ZNK6CGraph8sortByIdEv, symObjAddr: 0x144, symBinAddr: 0x100005390, symSize: 0x58 }
  - { offset: 0x2DD6C, size: 0x8, addend: 0x0, symName: __ZNK6CGraph8sortByIdEv, symObjAddr: 0x144, symBinAddr: 0x100005390, symSize: 0x58 }
  - { offset: 0x2DEB2, size: 0x8, addend: 0x0, symName: __Z7makeCSRR5Graph, symObjAddr: 0x19C, symBinAddr: 0x1000053E8, symSize: 0x370 }
  - { offset: 0x2E723, size: 0x8, addend: 0x0, symName: __Z13compareDegree4PairS_, symObjAddr: 0x18BC, symBinAddr: 0x100006B08, symSize: 0x1C }
  - { offset: 0x2E760, size: 0x8, addend: 0x0, symName: __Z12binarySearchPyjy, symObjAddr: 0x18D8, symBinAddr: 0x100006B24, symSize: 0x40 }
  - { offset: 0x2E83F, size: 0x8, addend: 0x0, symName: __ZNK6CGraph19renameByDegreeOrderEv, symObjAddr: 0x1918, symBinAddr: 0x100006B64, symSize: 0x33C }
  - { offset: 0x2EB39, size: 0x8, addend: 0x0, symName: __ZNK6CGraph9reMappingEPjS0_, symObjAddr: 0x2E0C, symBinAddr: 0x100008058, symSize: 0x100 }
  - { offset: 0x2EEC2, size: 0x8, addend: 0x0, symName: __ZNK6CGraph5getE2Ev, symObjAddr: 0x2F0C, symBinAddr: 0x100008158, symSize: 0x228 }
  - { offset: 0x2F43C, size: 0x8, addend: 0x0, symName: __ZNK6CGraph5getE3ES_, symObjAddr: 0x31A0, symBinAddr: 0x100008380, symSize: 0x374 }
  - { offset: 0x2FA2E, size: 0x8, addend: 0x0, symName: __ZNK6CGraph5getE4ES_S_, symObjAddr: 0x3514, symBinAddr: 0x1000086F4, symSize: 0x2EC }
  - { offset: 0x3004C, size: 0x8, addend: 0x0, symName: __ZNK6CGraph13getEdgeBinaryEjj, symObjAddr: 0x3800, symBinAddr: 0x1000089E0, symSize: 0x60 }
  - { offset: 0x300C4, size: 0x8, addend: 0x0, symName: __ZNK6CGraph12isEdgeBinaryEjj, symObjAddr: 0x3860, symBinAddr: 0x100008A40, symSize: 0x5C }
  - { offset: 0x30858, size: 0x8, addend: 0x0, symName: __Z8read_mtxRKNSt3__112basic_stringIcNS_11char_traitsIcEENS_9allocatorIcEEEER5Graph, symObjAddr: 0x38BC, symBinAddr: 0x100008A9C, symSize: 0x390 }
  - { offset: 0x31091, size: 0x8, addend: 0x0, symName: __ZNSt3__114basic_ifstreamIcNS_11char_traitsIcEEEC1ERKNS_12basic_stringIcS2_NS_9allocatorIcEEEEj, symObjAddr: 0x3C4C, symBinAddr: 0x100008E2C, symSize: 0x11C }
  - { offset: 0x311E5, size: 0x8, addend: 0x0, symName: __ZNSt3__119basic_istringstreamIcNS_11char_traitsIcEENS_9allocatorIcEEEC1B8ne180100ERKNS_12basic_stringIcS2_S4_EEj, symObjAddr: 0x3DF4, symBinAddr: 0x100008FD4, symSize: 0x12C }
  - { offset: 0x313C2, size: 0x8, addend: 0x0, symName: __ZNSt3__114basic_ifstreamIcNS_11char_traitsIcEEED1Ev, symObjAddr: 0x3FA0, symBinAddr: 0x100009180, symSize: 0x54 }
  - { offset: 0x3140A, size: 0x8, addend: 0x0, symName: __ZNSt3__119basic_istringstreamIcNS_11char_traitsIcEENS_9allocatorIcEEED1Ev, symObjAddr: 0x3F20, symBinAddr: 0x100009100, symSize: 0x80 }
  - { offset: 0x319FA, size: 0x8, addend: 0x0, symName: __ZNSt3__17getlineB8ne180100IcNS_11char_traitsIcEENS_9allocatorIcEEEERNS_13basic_istreamIT_T0_EES9_RNS_12basic_stringIS6_S7_T1_EES6_, symObjAddr: 0x4310, symBinAddr: 0x1000091D4, symSize: 0x184 }
  - { offset: 0x3377B, size: 0x8, addend: 0x0, symName: __Z13degreeOrderedP6CGraph, symObjAddr: 0x0, symBinAddr: 0x100009358, symSize: 0x23C }
  - { offset: 0x337A6, size: 0x8, addend: 0x0, symName: __ZNSt3__111__introsortINS_17_ClassicAlgPolicyER10DegreeCompPjLb0EEEvT1_S5_T0_NS_15iterator_traitsIS5_E15difference_typeEb, symObjAddr: 0x23C, symBinAddr: 0x100009594, symSize: 0x548 }
  - { offset: 0x33F0A, size: 0x8, addend: 0x0, symName: __ZNSt3__111__sift_downB8ne180100INS_17_ClassicAlgPolicyER10DegreeCompPjEEvT1_OT0_NS_15iterator_traitsIS5_E15difference_typeES5_, symObjAddr: 0x1130, symBinAddr: 0x10000A488, symSize: 0x18C }
  - { offset: 0x340B5, size: 0x8, addend: 0x0, symName: __ZNSt3__131__partition_with_equals_on_leftB8ne180100INS_17_ClassicAlgPolicyEPjR10DegreeCompEET0_S5_S5_T1_, symObjAddr: 0x8F8, symBinAddr: 0x100009C50, symSize: 0x1A8 }
  - { offset: 0x3434D, size: 0x8, addend: 0x0, symName: __ZNSt3__132__partition_with_equals_on_rightB8ne180100INS_17_ClassicAlgPolicyEPjR10DegreeCompEENS_4pairIT0_bEES6_S6_T1_, symObjAddr: 0xAA0, symBinAddr: 0x100009DF8, symSize: 0x1A8 }
  - { offset: 0x34599, size: 0x8, addend: 0x0, symName: __ZNSt3__127__insertion_sort_incompleteB8ne180100INS_17_ClassicAlgPolicyER10DegreeCompPjEEbT1_S5_T0_, symObjAddr: 0xC48, symBinAddr: 0x100009FA0, symSize: 0x23C }
  - { offset: 0x34ED5, size: 0x8, addend: 0x0, symName: __ZNSt3__17__sort3B8ne180100INS_17_ClassicAlgPolicyER10DegreeCompPjEEjT1_S5_S5_T0_, symObjAddr: 0x784, symBinAddr: 0x100009ADC, symSize: 0x174 }
  - { offset: 0x35274, size: 0x8, addend: 0x0, symName: __ZNSt3__17__sort4B8ne180100INS_17_ClassicAlgPolicyER10DegreeCompPjEEvT1_S5_S5_S5_T0_, symObjAddr: 0xE84, symBinAddr: 0x10000A1DC, symSize: 0x12C }
  - { offset: 0x354FC, size: 0x8, addend: 0x0, symName: __ZNSt3__17__sort5B8ne180100INS_17_ClassicAlgPolicyER10DegreeCompPjEEvT1_S5_S5_S5_S5_T0_, symObjAddr: 0xFB0, symBinAddr: 0x10000A308, symSize: 0x180 }
  - { offset: 0x35839, size: 0x8, addend: 0x0, symName: __ZNSt3__110__pop_heapB8ne180100INS_17_ClassicAlgPolicyE10DegreeCompPjEEvT1_S4_RT0_NS_15iterator_traitsIS4_E15difference_typeE, symObjAddr: 0x12BC, symBinAddr: 0x10000A614, symSize: 0x190 }
  - { offset: 0x367C4, size: 0x8, addend: 0x0, symName: __Z13degreeOrderedP6CGraph, symObjAddr: 0x0, symBinAddr: 0x100009358, symSize: 0x23C }
  - { offset: 0x36A94, size: 0x8, addend: 0x0, symName: __Z14degreeOrdered2P6CGraphS0_, symObjAddr: 0x144C, symBinAddr: 0x10000A7A4, symSize: 0x258 }
  - { offset: 0x38BD1, size: 0x8, addend: 0x0, symName: _num_threads, symObjAddr: 0x40C8, symBinAddr: 0x100014000, symSize: 0x0 }
  - { offset: 0x38CDB, size: 0x8, addend: 0x0, symName: __Z8get3sizeP6CGraphS0_, symObjAddr: 0x0, symBinAddr: 0x10000A9FC, symSize: 0x60 }
  - { offset: 0x38F23, size: 0x8, addend: 0x0, symName: __Z8get3sizeP6CGraphS0_.omp_outlined, symObjAddr: 0x6C, symBinAddr: 0x10000AA5C, symSize: 0x34C }
  - { offset: 0x393CE, size: 0x8, addend: 0x0, symName: __Z8get4sizeP6CGraphS0_S0_S0_, symObjAddr: 0x3B8, symBinAddr: 0x10000ADA8, symSize: 0x620 }
  - { offset: 0x39B1A, size: 0x8, addend: 0x0, symName: __Z8get4sizeP6CGraphS0_S0_S0_.omp_outlined, symObjAddr: 0x9D8, symBinAddr: 0x10000B3C8, symSize: 0x28BC }
  - { offset: 0x3AAB0, size: 0x8, addend: 0x0, symName: __Z10countThreeP6CGraphP4CDAGS0_S2_RA6_d, symObjAddr: 0x3294, symBinAddr: 0x10000DC84, symSize: 0x348 }
  - { offset: 0x3AC4F, size: 0x8, addend: 0x0, symName: __Z9countFourP4CDAGS0_RA36_d, symObjAddr: 0x35DC, symBinAddr: 0x10000DFCC, symSize: 0x114 }
  - { offset: 0x3ACCC, size: 0x8, addend: 0x0, symName: __Z10mEquation3RA6_d, symObjAddr: 0x36F0, symBinAddr: 0x10000E0E0, symSize: 0x34 }
  - { offset: 0x3AD25, size: 0x8, addend: 0x0, symName: __Z10mEquation4RA36_d, symObjAddr: 0x3724, symBinAddr: 0x10000E114, symSize: 0x42C }
  - { offset: 0x3AD76, size: 0x8, addend: 0x0, symName: __Z10print3sizeRA6_d, symObjAddr: 0x3B50, symBinAddr: 0x10000E540, symSize: 0xB8 }
  - { offset: 0x3AE38, size: 0x8, addend: 0x0, symName: __Z10print4sizeRA36_d, symObjAddr: 0x3C08, symBinAddr: 0x10000E5F8, symSize: 0x384 }
...
